target datalayout = "e-m:e-p270:32:32-p271:32:32-p272:64:64-i64:64-i128:128-f80:128-n8:16:32:64-S128"
target triple = "x86_64-pc-linux-gnu"

%struct._header_field_info = type { ptr, ptr, i32, i32, ptr, i64, ptr, i32, i32, i32, i32, ptr }
%struct._proto_node = type { ptr, ptr, ptr, ptr, ptr, ptr, ptr }
%struct.field_info = type { ptr, i32, i32, i32, i32, i32, i32, ptr, ptr, ptr, i32, i32 }
%struct._asn1_ctx_t = type { i32, i32, i8, ptr, ptr, ptr, ptr, ptr, %struct.anon.0, %struct.anon.3, %struct.anon.4, ptr }
%struct.anon.0 = type { i32, i8, i8, i8, ptr, ptr, i32, i32, ptr, ptr, ptr, %union.anon }
%union.anon = type { %struct.anon.1 }
%struct.anon.1 = type { ptr }
%struct.anon.3 = type { ptr, ptr, ptr }
%struct.anon.4 = type { i32, i8, ptr, i32, i32, ptr, ptr, ptr, %union.anon.5 }
%union.anon.5 = type { %struct.anon.6 }
%struct.anon.6 = type { ptr }

@display_internal_per_fields = internal global i8 0, align 1
@hf_per_extension_present_bit = internal global i32 0, align 4
@hf_per_enum_index = internal global i32 0, align 4
@hf_per_enum_extension_index = internal global i32 0, align 4

; Function Attrs: inlinehint nounwind null_pointer_is_valid sspstrong uwtable
define internal void @proto_item_set_hidden(ptr noundef %0) #3 {
  %2 = alloca ptr, align 8
  store ptr %0, ptr %2, align 8
  %3 = load ptr, ptr %2, align 8
  %4 = icmp ne ptr %3, null
  br i1 %4, label %5, label %24

5:                                                ; preds = %1
  br label %6

6:                                                ; preds = %5
  %7 = load ptr, ptr %2, align 8
  %8 = getelementptr inbounds nuw %struct._proto_node, ptr %7, i32 0, i32 5
  %9 = load ptr, ptr %8, align 8
  %10 = icmp ne ptr %9, null
  br i1 %10, label %11, label %22

11:                                               ; preds = %6
  %12 = load ptr, ptr %2, align 8
  %13 = getelementptr inbounds nuw %struct._proto_node, ptr %12, i32 0, i32 5
  %14 = load ptr, ptr %13, align 8
  %15 = getelementptr inbounds nuw %struct.field_info, ptr %14, i32 0, i32 6
  %16 = load i32, ptr %15, align 4
  %17 = or i32 %16, 1
  %18 = load ptr, ptr %2, align 8
  %19 = getelementptr inbounds nuw %struct._proto_node, ptr %18, i32 0, i32 5
  %20 = load ptr, ptr %19, align 8
  %21 = getelementptr inbounds nuw %struct.field_info, ptr %20, i32 0, i32 6
  store i32 %17, ptr %21, align 4
  br label %22

22:                                               ; preds = %11, %6
  br label %23

23:                                               ; preds = %22
  br label %24

24:                                               ; preds = %23, %1
  ret void
}

; Function Attrs: null_pointer_is_valid sspstrong uwtable
define i32 @dissect_per_enumerated(ptr noundef %0, i32 noundef %1, ptr noundef %2, ptr noundef %3, i32 noundef %4, i32 noundef %5, ptr noundef %6, i1 noundef zeroext %7, i32 noundef %8, ptr noundef %9) #0 {
  %11 = alloca ptr, align 8
  %12 = alloca i32, align 4
  %13 = alloca ptr, align 8
  %14 = alloca ptr, align 8
  %15 = alloca i32, align 4
  %16 = alloca i32, align 4
  %17 = alloca ptr, align 8
  %18 = alloca i8, align 1
  %19 = alloca i32, align 4
  %20 = alloca ptr, align 8
  %21 = alloca ptr, align 8
  %22 = alloca i32, align 4
  %23 = alloca i32, align 4
  %24 = alloca i32, align 4
  %25 = alloca i8, align 1
  %26 = alloca ptr, align 8
  store ptr %0, ptr %11, align 8
  store i32 %1, ptr %12, align 4
  store ptr %2, ptr %13, align 8
  store ptr %3, ptr %14, align 8
  store i32 %4, ptr %15, align 4
  store i32 %5, ptr %16, align 4
  store ptr %6, ptr %17, align 8
  %27 = zext i1 %7 to i8
  store i8 %27, ptr %18, align 1
  store i32 %8, ptr %19, align 4
  store ptr %9, ptr %20, align 8
  call void @llvm.lifetime.start.p0(i64 8, ptr %21) #11
  store ptr null, ptr %21, align 8
  call void @llvm.lifetime.start.p0(i64 4, ptr %22) #11
  call void @llvm.lifetime.start.p0(i64 4, ptr %23) #11
  call void @llvm.lifetime.start.p0(i64 4, ptr %24) #11
  %28 = load i32, ptr %12, align 4
  store i32 %28, ptr %24, align 4
  call void @llvm.lifetime.start.p0(i64 1, ptr %25) #11
  store i8 0, ptr %25, align 1
  call void @llvm.lifetime.start.p0(i64 8, ptr %26) #11
  %29 = load i8, ptr %18, align 1, !range !6, !noundef !7
  %30 = trunc i8 %29 to i1
  br i1 %30, label %31, label %45

31:                                               ; preds = %10
  %32 = load ptr, ptr %11, align 8
  %33 = load i32, ptr %12, align 4
  %34 = load ptr, ptr %13, align 8
  %35 = load ptr, ptr %14, align 8
  %36 = load i32, ptr @hf_per_extension_present_bit, align 4
  %37 = call i32 @dissect_per_boolean(ptr noundef %32, i32 noundef %33, ptr noundef %34, ptr noundef %35, i32 noundef %36, ptr noundef %25)
  store i32 %37, ptr %12, align 4
  %38 = load i8, ptr @display_internal_per_fields, align 1, !range !6, !noundef !7
  %39 = trunc i8 %38 to i1
  br i1 %39, label %44, label %40

40:                                               ; preds = %31
  %41 = load ptr, ptr %13, align 8
  %42 = getelementptr inbounds nuw %struct._asn1_ctx_t, ptr %41, i32 0, i32 4
  %43 = load ptr, ptr %42, align 8
  call void @proto_item_set_hidden(ptr noundef %43)
  br label %44

44:                                               ; preds = %40, %31
  br label %45

45:                                               ; preds = %44, %10
  %46 = load i8, ptr %25, align 1, !range !6, !noundef !7
  %47 = trunc i8 %46 to i1
  br i1 %47, label %64, label %48

48:                                               ; preds = %45
  %49 = load ptr, ptr %11, align 8
  %50 = load i32, ptr %12, align 4
  %51 = load ptr, ptr %13, align 8
  %52 = load ptr, ptr %14, align 8
  %53 = load i32, ptr @hf_per_enum_index, align 4
  %54 = load i32, ptr %16, align 4
  %55 = sub i32 %54, 1
  %56 = call i32 @dissect_per_constrained_integer(ptr noundef %49, i32 noundef %50, ptr noundef %51, ptr noundef %52, i32 noundef %53, i32 noundef 0, i32 noundef %55, ptr noundef %22, i1 noundef zeroext false)
  store i32 %56, ptr %12, align 4
  %57 = load i8, ptr @display_internal_per_fields, align 1, !range !6, !noundef !7
  %58 = trunc i8 %57 to i1
  br i1 %58, label %63, label %59

59:                                               ; preds = %48
  %60 = load ptr, ptr %13, align 8
  %61 = getelementptr inbounds nuw %struct._asn1_ctx_t, ptr %60, i32 0, i32 4
  %62 = load ptr, ptr %61, align 8
  call void @proto_item_set_hidden(ptr noundef %62)
  br label %63

63:                                               ; preds = %59, %48
  br label %74

64:                                               ; preds = %45
  %65 = load ptr, ptr %11, align 8
  %66 = load i32, ptr %12, align 4
  %67 = load ptr, ptr %13, align 8
  %68 = load ptr, ptr %14, align 8
  %69 = load i32, ptr @hf_per_enum_extension_index, align 4
  %70 = call i32 @dissect_per_normally_small_nonnegative_whole_number(ptr noundef %65, i32 noundef %66, ptr noundef %67, ptr noundef %68, i32 noundef %69, ptr noundef %22)
  store i32 %70, ptr %12, align 4
  %71 = load i32, ptr %16, align 4
  %72 = load i32, ptr %22, align 4
  %73 = add i32 %72, %71
  store i32 %73, ptr %22, align 4
  br label %74

74:                                               ; preds = %64, %63
  %75 = load ptr, ptr %20, align 8
  %76 = icmp ne ptr %75, null
  br i1 %76, label %77, label %89

77:                                               ; preds = %74
  %78 = load i32, ptr %22, align 4
  %79 = load i32, ptr %16, align 4
  %80 = load i32, ptr %19, align 4
  %81 = add i32 %79, %80
  %82 = icmp ult i32 %78, %81
  br i1 %82, label %83, label %89

83:                                               ; preds = %77
  %84 = load ptr, ptr %20, align 8
  %85 = load i32, ptr %22, align 4
  %86 = zext i32 %85 to i64
  %87 = getelementptr i32, ptr %84, i64 %86
  %88 = load i32, ptr %87, align 4
  br label %91

89:                                               ; preds = %77, %74
  %90 = load i32, ptr %22, align 4
  br label %91

91:                                               ; preds = %89, %83
  %92 = phi i32 [ %88, %83 ], [ %90, %89 ]
  store i32 %92, ptr %23, align 4
  %93 = load i32, ptr %15, align 4
  %94 = call ptr @proto_registrar_get_nth(i32 noundef %93)
  store ptr %94, ptr %26, align 8
  %95 = load ptr, ptr %26, align 8
  %96 = getelementptr inbounds nuw %struct._header_field_info, ptr %95, i32 0, i32 2
  %97 = load i32, ptr %96, align 8
  %98 = icmp eq i32 %97, 3
  br i1 %98, label %144, label %99

99:                                               ; preds = %91
  %100 = load ptr, ptr %26, align 8
  %101 = getelementptr inbounds nuw %struct._header_field_info, ptr %100, i32 0, i32 2
  %102 = load i32, ptr %101, align 8
  %103 = icmp eq i32 %102, 4
  br i1 %103, label %144, label %104

104:                                              ; preds = %99
  %105 = load ptr, ptr %26, align 8
  %106 = getelementptr inbounds nuw %struct._header_field_info, ptr %105, i32 0, i32 2
  %107 = load i32, ptr %106, align 8
  %108 = icmp eq i32 %107, 5
  br i1 %108, label %144, label %109

109:                                              ; preds = %104
  %110 = load ptr, ptr %26, align 8
  %111 = getelementptr inbounds nuw %struct._header_field_info, ptr %110, i32 0, i32 2
  %112 = load i32, ptr %111, align 8
  %113 = icmp eq i32 %112, 6
  br i1 %113, label %144, label %114

114:                                              ; preds = %109
  %115 = load ptr, ptr %26, align 8
  %116 = getelementptr inbounds nuw %struct._header_field_info, ptr %115, i32 0, i32 2
  %117 = load i32, ptr %116, align 8
  %118 = icmp eq i32 %117, 7
  br i1 %118, label %144, label %119

119:                                              ; preds = %114
  %120 = load ptr, ptr %26, align 8
  %121 = getelementptr inbounds nuw %struct._header_field_info, ptr %120, i32 0, i32 2
  %122 = load i32, ptr %121, align 8
  %123 = icmp eq i32 %122, 35
  br i1 %123, label %144, label %124

124:                                              ; preds = %119
  %125 = load ptr, ptr %26, align 8
  %126 = getelementptr inbounds nuw %struct._header_field_info, ptr %125, i32 0, i32 2
  %127 = load i32, ptr %126, align 8
  %128 = icmp eq i32 %127, 8
  br i1 %128, label %144, label %129

129:                                              ; preds = %124
  %130 = load ptr, ptr %26, align 8
  %131 = getelementptr inbounds nuw %struct._header_field_info, ptr %130, i32 0, i32 2
  %132 = load i32, ptr %131, align 8
  %133 = icmp eq i32 %132, 9
  br i1 %133, label %144, label %134

134:                                              ; preds = %129
  %135 = load ptr, ptr %26, align 8
  %136 = getelementptr inbounds nuw %struct._header_field_info, ptr %135, i32 0, i32 2
  %137 = load i32, ptr %136, align 8
  %138 = icmp eq i32 %137, 10
  br i1 %138, label %144, label %139

139:                                              ; preds = %134
  %140 = load ptr, ptr %26, align 8
  %141 = getelementptr inbounds nuw %struct._header_field_info, ptr %140, i32 0, i32 2
  %142 = load i32, ptr %141, align 8
  %143 = icmp eq i32 %142, 11
  br i1 %143, label %144, label %166

144:                                              ; preds = %139, %134, %129, %124, %119, %114, %109, %104, %99, %91
  %145 = load ptr, ptr %14, align 8
  %146 = load i32, ptr %15, align 4
  %147 = load ptr, ptr %11, align 8
  %148 = load i32, ptr %24, align 4
  %149 = lshr i32 %148, 3
  %150 = load i32, ptr %12, align 4
  %151 = lshr i32 %150, 3
  %152 = load i32, ptr %24, align 4
  %153 = lshr i32 %152, 3
  %154 = icmp ne i32 %151, %153
  br i1 %154, label %155, label %161

155:                                              ; preds = %144
  %156 = load i32, ptr %12, align 4
  %157 = lshr i32 %156, 3
  %158 = load i32, ptr %24, align 4
  %159 = lshr i32 %158, 3
  %160 = sub i32 %157, %159
  br label %162

161:                                              ; preds = %144
  br label %162

162:                                              ; preds = %161, %155
  %163 = phi i32 [ %160, %155 ], [ 1, %161 ]
  %164 = load i32, ptr %23, align 4
  %165 = call ptr @proto_tree_add_uint(ptr noundef %145, i32 noundef %146, ptr noundef %147, i32 noundef %149, i32 noundef %163, i32 noundef %164)
  store ptr %165, ptr %21, align 8
  br label %167

166:                                              ; preds = %139
  call void @except_throw(i64 noundef 1, i64 noundef 3, ptr noundef null) #12
  unreachable

167:                                              ; preds = %162
  %168 = load ptr, ptr %21, align 8
  %169 = load ptr, ptr %13, align 8
  %170 = getelementptr inbounds nuw %struct._asn1_ctx_t, ptr %169, i32 0, i32 4
  store ptr %168, ptr %170, align 8
  %171 = load ptr, ptr %17, align 8
  %172 = icmp ne ptr %171, null
  br i1 %172, label %173, label %176

173:                                              ; preds = %167
  %174 = load i32, ptr %23, align 4
  %175 = load ptr, ptr %17, align 8
  store i32 %174, ptr %175, align 4
  br label %176

176:                                              ; preds = %173, %167
  %177 = load i32, ptr %12, align 4
  call void @llvm.lifetime.end.p0(i64 8, ptr %26) #11
  call void @llvm.lifetime.end.p0(i64 1, ptr %25) #11
  call void @llvm.lifetime.end.p0(i64 4, ptr %24) #11
  call void @llvm.lifetime.end.p0(i64 4, ptr %23) #11
  call void @llvm.lifetime.end.p0(i64 4, ptr %22) #11
  call void @llvm.lifetime.end.p0(i64 8, ptr %21) #11
  ret i32 %177
}