; Function Attrs: null_pointer_is_valid sspstrong uwtable
define i32 @dissect_per_enumerated(ptr noundef %0, i32 noundef %1, ptr noundef captures(none) %2, ptr noundef %3, i32 noundef %4, i32 noundef %5, ptr noundef writeonly captures(address_is_null) %6, i1 noundef zeroext %7, i32 noundef %8, ptr noundef readonly captures(address_is_null) %9) local_unnamed_addr #0 {
  %11 = alloca i32, align 4
  %12 = alloca i8, align 1
  call void @llvm.lifetime.start.p0(i64 4, ptr nonnull %11) #13
  call void @llvm.lifetime.start.p0(i64 1, ptr nonnull %12) #13
  store i8 0, ptr %12, align 1
  br i1 %7, label %13, label %proto_item_set_hidden.exit

13:                                               ; preds = %10
  %14 = load i32, ptr @hf_per_extension_present_bit, align 4
  %15 = call i32 @dissect_per_boolean(ptr noundef %0, i32 noundef %1, ptr noundef %2, ptr noundef %3, i32 noundef %14, ptr noundef nonnull %12)
  %16 = load i8, ptr @display_internal_per_fields, align 1, !range !6, !noundef !7
  %17 = trunc nuw i8 %16 to i1
  br i1 %17, label %proto_item_set_hidden.exit, label %18

18:                                               ; preds = %13
  %19 = getelementptr inbounds nuw i8, ptr %2, i64 24
  %20 = load ptr, ptr %19, align 8
  %.not.i = icmp eq ptr %20, null
  br i1 %.not.i, label %proto_item_set_hidden.exit, label %21

21:                                               ; preds = %18
  %22 = getelementptr inbounds nuw i8, ptr %20, i64 40
  %23 = load ptr, ptr %22, align 8
  %.not5.i = icmp eq ptr %23, null
  br i1 %.not5.i, label %proto_item_set_hidden.exit, label %24

24:                                               ; preds = %21
  %25 = getelementptr inbounds nuw i8, ptr %23, i64 28
  %26 = load i32, ptr %25, align 4
  %27 = or i32 %26, 1
  store i32 %27, ptr %25, align 4
  br label %proto_item_set_hidden.exit

proto_item_set_hidden.exit:                       ; preds = %24, %21, %18, %13, %10
  %.0 = phi i32 [ %15, %13 ], [ %1, %10 ], [ %15, %18 ], [ %15, %21 ], [ %15, %24 ]
  %28 = load i8, ptr %12, align 1, !range !6, !noundef !7
  %29 = trunc nuw i8 %28 to i1
  br i1 %29, label %46, label %30

30:                                               ; preds = %proto_item_set_hidden.exit
  %31 = load i32, ptr @hf_per_enum_index, align 4
  %32 = add i32 %5, -1
  %33 = call i32 @dissect_per_constrained_integer(ptr noundef %0, i32 noundef %.0, ptr noundef %2, ptr noundef %3, i32 noundef %31, i32 noundef 0, i32 noundef %32, ptr noundef nonnull %11, i1 noundef zeroext false)
  %34 = load i8, ptr @display_internal_per_fields, align 1, !range !6, !noundef !7
  %35 = trunc nuw i8 %34 to i1
  br i1 %35, label %proto_item_set_hidden.exit57, label %36

36:                                               ; preds = %30
  %37 = getelementptr inbounds nuw i8, ptr %2, i64 24
  %38 = load ptr, ptr %37, align 8
  %.not.i55 = icmp eq ptr %38, null
  br i1 %.not.i55, label %proto_item_set_hidden.exit57, label %39

39:                                               ; preds = %36
  %40 = getelementptr inbounds nuw i8, ptr %38, i64 40
  %41 = load ptr, ptr %40, align 8
  %.not5.i56 = icmp eq ptr %41, null
  br i1 %.not5.i56, label %proto_item_set_hidden.exit57, label %42

42:                                               ; preds = %39
  %43 = getelementptr inbounds nuw i8, ptr %41, i64 28
  %44 = load i32, ptr %43, align 4
  %45 = or i32 %44, 1
  store i32 %45, ptr %43, align 4
  br label %proto_item_set_hidden.exit57

46:                                               ; preds = %proto_item_set_hidden.exit
  %47 = load i32, ptr @hf_per_enum_extension_index, align 4
  %48 = call fastcc i32 @dissect_per_normally_small_nonnegative_whole_number(ptr noundef %0, i32 noundef %.0, ptr noundef %2, ptr noundef %3, i32 noundef %47, ptr noundef nonnull %11)
  %49 = load i32, ptr %11, align 4
  %50 = add i32 %49, %5
  store i32 %50, ptr %11, align 4
  br label %proto_item_set_hidden.exit57

proto_item_set_hidden.exit57:                     ; preds = %42, %39, %36, %30, %46
  %.1 = phi i32 [ %48, %46 ], [ %33, %30 ], [ %33, %36 ], [ %33, %39 ], [ %33, %42 ]
  %.not = icmp eq ptr %9, null
  br i1 %.not, label %58, label %51

51:                                               ; preds = %proto_item_set_hidden.exit57
  %52 = load i32, ptr %11, align 4
  %53 = add i32 %8, %5
  %54 = icmp ult i32 %52, %53
  br i1 %54, label %55, label %58

55:                                               ; preds = %51
  %56 = zext i32 %52 to i64
  %57 = getelementptr i32, ptr %9, i64 %56
  br label %58

58:                                               ; preds = %proto_item_set_hidden.exit57, %51, %55
  %.in = phi ptr [ %57, %55 ], [ %11, %51 ], [ %11, %proto_item_set_hidden.exit57 ]
  %59 = load i32, ptr %.in, align 4
  %60 = call ptr @proto_registrar_get_nth(i32 noundef %4)
  %61 = getelementptr inbounds nuw i8, ptr %60, i64 16
  %62 = load i32, ptr %61, align 8
  switch i32 %62, label %69 [
    i32 3, label %63
    i32 4, label %63
    i32 5, label %63
    i32 6, label %63
    i32 7, label %63
    i32 35, label %63
    i32 8, label %63
    i32 9, label %63
    i32 10, label %63
    i32 11, label %63
  ]

63:                                               ; preds = %58, %58, %58, %58, %58, %58, %58, %58, %58, %58
  %64 = lshr i32 %1, 3
  %65 = lshr i32 %.1, 3
  %.not53 = icmp eq i32 %65, %64
  %66 = sub nsw i32 %65, %64
  %spec.select = select i1 %.not53, i32 1, i32 %66
  %67 = call ptr @proto_tree_add_uint(ptr noundef %3, i32 noundef %4, ptr noundef %0, i32 noundef %64, i32 noundef %spec.select, i32 noundef %59)
  %68 = getelementptr inbounds nuw i8, ptr %2, i64 24
  store ptr %67, ptr %68, align 8
  %.not54 = icmp eq ptr %6, null
  br i1 %.not54, label %71, label %70

69:                                               ; preds = %58
  call void @except_throw(i64 noundef 1, i64 noundef 3, ptr noundef null) #12
  unreachable

70:                                               ; preds = %63
  store i32 %59, ptr %6, align 4
  br label %71

71:                                               ; preds = %70, %63
  call void @llvm.lifetime.end.p0(i64 1, ptr nonnull %12) #13
  call void @llvm.lifetime.end.p0(i64 4, ptr nonnull %11) #13
  ret i32 %.1
}